target datalayout = "e-m:e-p270:32:32-p271:32:32-p272:64:64-i64:64-i128:128-f80:128-n8:16:32:64-S128"
target triple = "x86_64-pc-linux-gnu"

; Function Attrs: nounwind uwtable
define internal zeroext i1 @HIDAPI_DriverXbox360W_IsSupportedDevice(ptr noundef %0, ptr noundef %1, i32 noundef %2, i16 noundef zeroext %3, i16 noundef zeroext %4, i16 noundef zeroext %5, i32 noundef %6, i32 noundef %7, i32 noundef %8, i32 noundef %9) #0 {
  %11 = alloca i1, align 1
  %12 = alloca ptr, align 8
  %13 = alloca ptr, align 8
  %14 = alloca i32, align 4
  %15 = alloca i16, align 2
  %16 = alloca i16, align 2
  %17 = alloca i16, align 2
  %18 = alloca i32, align 4
  %19 = alloca i32, align 4
  %20 = alloca i32, align 4
  %21 = alloca i32, align 4
  %22 = alloca i32, align 4
  %23 = alloca i32, align 4
  store ptr %0, ptr %12, align 8
  store ptr %1, ptr %13, align 8
  store i32 %2, ptr %14, align 4
  store i16 %3, ptr %15, align 2
  store i16 %4, ptr %16, align 2
  store i16 %5, ptr %17, align 2
  store i32 %6, ptr %18, align 4
  store i32 %7, ptr %19, align 4
  store i32 %8, ptr %20, align 4
  store i32 %9, ptr %21, align 4
  call void @llvm.lifetime.start.p0(i64 4, ptr %22) #6
  store i32 129, ptr %22, align 4
  %24 = load i16, ptr %15, align 2
  %25 = zext i16 %24 to i32
  %26 = icmp eq i32 %25, 1118
  br i1 %26, label %27, label %42

27:                                               ; preds = %10
  %28 = load i16, ptr %16, align 2
  %29 = zext i16 %28 to i32
  %30 = icmp eq i32 %29, 657
  br i1 %30, label %39, label %31

31:                                               ; preds = %27
  %32 = load i16, ptr %16, align 2
  %33 = zext i16 %32 to i32
  %34 = icmp eq i32 %33, 681
  br i1 %34, label %39, label %35

35:                                               ; preds = %31
  %36 = load i16, ptr %16, align 2
  %37 = zext i16 %36 to i32
  %38 = icmp eq i32 %37, 1817
  br i1 %38, label %39, label %42

39:                                               ; preds = %35, %31, %27
  %40 = load i32, ptr %21, align 4
  %41 = icmp eq i32 %40, 0
  br i1 %41, label %48, label %42

42:                                               ; preds = %39, %35, %10
  %43 = load i32, ptr %14, align 4
  %44 = icmp eq i32 %43, 2
  br i1 %44, label %45, label %49

45:                                               ; preds = %42
  %46 = load i32, ptr %21, align 4
  %47 = icmp eq i32 %46, 129
  br i1 %47, label %48, label %49

48:                                               ; preds = %45, %39
  store i1 true, ptr %11, align 1
  store i32 1, ptr %23, align 4
  br label %50

49:                                               ; preds = %45, %42
  store i1 false, ptr %11, align 1
  store i32 1, ptr %23, align 4
  br label %50

50:                                               ; preds = %49, %48
  call void @llvm.lifetime.end.p0(i64 4, ptr %22) #6
  %51 = load i1, ptr %11, align 1
  ret i1 %51
}