; Function Attrs: mustprogress nofree norecurse nosync nounwind willreturn memory(none) uwtable
define internal noundef zeroext i1 @HIDAPI_DriverXbox360W_IsSupportedDevice(ptr readnone captures(none) %0, ptr readnone captures(none) %1, i32 noundef %2, i16 noundef zeroext %3, i16 noundef zeroext %4, i16 zeroext %5, i32 %6, i32 %7, i32 %8, i32 noundef %9) #1 {
  %11 = icmp eq i16 %3, 1118
  br i1 %11, label %12, label %17

12:                                               ; preds = %10
  %13 = icmp eq i16 %4, 657
  %14 = icmp eq i16 %4, 681
  %or.cond = or i1 %13, %14
  %15 = icmp eq i16 %4, 1817
  %or.cond5 = or i1 %15, %or.cond
  %16 = icmp eq i32 %9, 0
  %or.cond7 = and i1 %or.cond5, %16
  br i1 %or.cond7, label %20, label %17

17:                                               ; preds = %12, %10
  %18 = icmp eq i32 %2, 2
  %19 = icmp eq i32 %9, 129
  %or.cond9 = and i1 %18, %19
  br label %20

20:                                               ; preds = %17, %12
  %.0 = phi i1 [ true, %12 ], [ %or.cond9, %17 ]
  ret i1 %.0
}